target datalayout = "e-m:e-p270:32:32-p271:32:32-p272:64:64-i64:64-i128:128-f80:128-n8:16:32:64-S128"
target triple = "x86_64-pc-linux-gnu"

%struct._packet_info = type { ptr, ptr, i32, i32, %struct.nstime_t, %struct.nstime_t, %struct.nstime_t, i8, ptr, ptr, ptr, ptr, %struct._address, %struct._address, %struct._address, %struct._address, %struct._address, %struct._address, i32, ptr, i8, [3 x i8], %struct.anon, i32, i32, i32, i32, ptr, i8, ptr, ptr, i16, i16, i32, i32, i16, i32, i32, ptr, ptr, ptr, i8, i8, i16, i16, i16, i32, i16, i16, ptr, ptr, ptr, ptr, ptr, i32, i32 }
%struct.nstime_t = type { i64, i32 }
%struct._address = type { i32, i32, ptr, ptr }
%struct.anon = type { i8, [3 x i8] }

@hf_jxta_udp = internal global i32 0, align 4
@hf_jxta_udpsig = internal global i32 0, align 4
@ett_jxta = internal global i32 0, align 4
@ett_jxta_udp = internal global i32 0, align 4
@.str.136 = private unnamed_addr constant [5 x i8] c"JXTA\00", align 1
@proto_jxta = internal global i32 0, align 4
@jxta_udp_handle = internal global ptr null, align 8
@gDESEGMENT = internal global i8 1, align 1
@JXTA_UDP_SIG = internal constant [4 x i8] c"JXTA", align 1
@.str.165 = private unnamed_addr constant [17 x i8] c"JXTA UDP Message\00", align 1

; Function Attrs: null_pointer_is_valid sspstrong uwtable
define internal i32 @dissect_jxta_udp(ptr noundef %0, ptr noundef %1, ptr noundef %2, ptr noundef %3) #0 {
  %5 = alloca i32, align 4
  %6 = alloca ptr, align 8
  %7 = alloca ptr, align 8
  %8 = alloca ptr, align 8
  %9 = alloca ptr, align 8
  %10 = alloca i32, align 4
  %11 = alloca i32, align 4
  %12 = alloca i32, align 4
  %13 = alloca ptr, align 8
  %14 = alloca ptr, align 8
  %15 = alloca i32, align 4
  %16 = alloca i64, align 8
  %17 = alloca ptr, align 8
  %18 = alloca i32, align 4
  %19 = alloca i32, align 4
  %20 = alloca ptr, align 8
  %21 = alloca ptr, align 8
  %22 = alloca ptr, align 8
  %23 = alloca ptr, align 8
  %24 = alloca ptr, align 8
  %25 = alloca i64, align 8
  %26 = alloca ptr, align 8
  %27 = alloca ptr, align 8
  store ptr %0, ptr %6, align 8
  store ptr %1, ptr %7, align 8
  store ptr %2, ptr %8, align 8
  store ptr %3, ptr %9, align 8
  call void @llvm.lifetime.start.p0(i64 4, ptr %10) #14
  store i32 0, ptr %10, align 4
  call void @llvm.lifetime.start.p0(i64 4, ptr %11) #14
  call void @llvm.lifetime.start.p0(i64 4, ptr %12) #14
  store i32 0, ptr %12, align 4
  call void @llvm.lifetime.start.p0(i64 8, ptr %13) #14
  %28 = load ptr, ptr %7, align 8
  %29 = call ptr @find_or_create_conversation(ptr noundef %28)
  store ptr %29, ptr %13, align 8
  %30 = load ptr, ptr %13, align 8
  %31 = load ptr, ptr @jxta_udp_handle, align 8
  call void @conversation_set_dissector(ptr noundef %30, ptr noundef %31)
  br label %32

32:                                               ; preds = %4
  br label %33

33:                                               ; preds = %32
  call void @llvm.lifetime.start.p0(i64 8, ptr %14) #14
  call void @llvm.lifetime.start.p0(i64 4, ptr %15) #14
  store i32 0, ptr %15, align 4
  call void @llvm.lifetime.start.p0(i64 8, ptr %16) #14
  store i64 -1, ptr %16, align 8
  call void @llvm.lifetime.start.p0(i64 8, ptr %17) #14
  store ptr null, ptr %17, align 8
  %34 = load ptr, ptr %6, align 8
  %35 = load i32, ptr %10, align 4
  %36 = call i32 @tvb_reported_length_remaining(ptr noundef %34, i32 noundef %35)
  store i32 %36, ptr %11, align 4
  %37 = load i32, ptr %11, align 4
  %38 = zext i32 %37 to i64
  %39 = icmp ult i64 %38, 4
  br i1 %39, label %40, label %45

40:                                               ; preds = %33
  %41 = load i32, ptr %11, align 4
  %42 = zext i32 %41 to i64
  %43 = sub i64 4, %42
  %44 = trunc i64 %43 to i32
  store i32 %44, ptr %12, align 4
  store i32 3, ptr %18, align 4
  br label %100

45:                                               ; preds = %33
  %46 = load ptr, ptr %6, align 8
  %47 = load i32, ptr %10, align 4
  %48 = call i32 @tvb_memeql(ptr noundef %46, i32 noundef %47, ptr noundef @JXTA_UDP_SIG, i64 noundef 4)
  %49 = icmp ne i32 %48, 0
  br i1 %49, label %50, label %51

50:                                               ; preds = %45
  store i32 0, ptr %5, align 4
  store i32 1, ptr %18, align 4
  br label %100

51:                                               ; preds = %45
  %52 = load i32, ptr %10, align 4
  %53 = add i32 %52, 4
  store i32 %53, ptr %10, align 4
  %54 = load ptr, ptr %6, align 8
  %55 = load i32, ptr %10, align 4
  %56 = call ptr @tvb_new_subset_remaining(ptr noundef %54, i32 noundef %55)
  store ptr %56, ptr %14, align 8
  %57 = load ptr, ptr %14, align 8
  %58 = load ptr, ptr %7, align 8
  %59 = call i32 @dissect_jxta_message_framing(ptr noundef %57, ptr noundef %58, ptr noundef null, ptr noundef %16, ptr noundef %17)
  store i32 %59, ptr %15, align 4
  %60 = load i32, ptr %15, align 4
  %61 = icmp eq i32 0, %60
  br i1 %61, label %71, label %62

62:                                               ; preds = %51
  %63 = load ptr, ptr %17, align 8
  %64 = icmp eq ptr null, %63
  br i1 %64, label %71, label %65

65:                                               ; preds = %62
  %66 = load i64, ptr %16, align 8
  %67 = icmp ule i64 %66, 0
  br i1 %67, label %71, label %68

68:                                               ; preds = %65
  %69 = load i64, ptr %16, align 8
  %70 = icmp ugt i64 %69, 4294967295
  br i1 %70, label %71, label %72

71:                                               ; preds = %68, %65, %62, %51
  store i32 0, ptr %5, align 4
  store i32 1, ptr %18, align 4
  br label %100

72:                                               ; preds = %68
  %73 = load i32, ptr %15, align 4
  %74 = icmp slt i32 %73, 0
  br i1 %74, label %75, label %78

75:                                               ; preds = %72
  %76 = load i32, ptr %15, align 4
  %77 = sub i32 0, %76
  store i32 %77, ptr %12, align 4
  store i32 3, ptr %18, align 4
  br label %100

78:                                               ; preds = %72
  %79 = load i32, ptr %15, align 4
  %80 = load i32, ptr %10, align 4
  %81 = add i32 %80, %79
  store i32 %81, ptr %10, align 4
  %82 = load ptr, ptr %6, align 8
  %83 = load i32, ptr %10, align 4
  %84 = call i32 @tvb_reported_length_remaining(ptr noundef %82, i32 noundef %83)
  store i32 %84, ptr %11, align 4
  %85 = load i32, ptr %11, align 4
  %86 = zext i32 %85 to i64
  %87 = load i64, ptr %16, align 8
  %88 = icmp ult i64 %86, %87
  br i1 %88, label %89, label %95

89:                                               ; preds = %78
  %90 = load i64, ptr %16, align 8
  %91 = load i32, ptr %11, align 4
  %92 = zext i32 %91 to i64
  %93 = sub i64 %90, %92
  %94 = trunc i64 %93 to i32
  store i32 %94, ptr %12, align 4
  store i32 3, ptr %18, align 4
  br label %100

95:                                               ; preds = %78
  %96 = load i64, ptr %16, align 8
  %97 = trunc i64 %96 to i32
  %98 = load i32, ptr %10, align 4
  %99 = add i32 %98, %97
  store i32 %99, ptr %10, align 4
  store i32 3, ptr %18, align 4
  br label %100

100:                                              ; preds = %95, %89, %75, %71, %50, %40
  call void @llvm.lifetime.end.p0(i64 8, ptr %17) #14
  call void @llvm.lifetime.end.p0(i64 8, ptr %16) #14
  call void @llvm.lifetime.end.p0(i64 4, ptr %15) #14
  call void @llvm.lifetime.end.p0(i64 8, ptr %14) #14
  %101 = load i32, ptr %18, align 4
  switch i32 %101, label %174 [
    i32 3, label %102
  ]

102:                                              ; preds = %100
  %103 = load i32, ptr %12, align 4
  %104 = icmp sgt i32 %103, 0
  br i1 %104, label %105, label %122

105:                                              ; preds = %102
  %106 = load i8, ptr @gDESEGMENT, align 1, !range !6, !noundef !7
  %107 = trunc i8 %106 to i1
  br i1 %107, label %108, label %122

108:                                              ; preds = %105
  %109 = load ptr, ptr %7, align 8
  %110 = getelementptr inbounds nuw %struct._packet_info, ptr %109, i32 0, i32 31
  %111 = load i16, ptr %110, align 8
  %112 = zext i16 %111 to i32
  %113 = icmp ne i32 %112, 0
  br i1 %113, label %114, label %122

114:                                              ; preds = %108
  %115 = load ptr, ptr %7, align 8
  %116 = getelementptr inbounds nuw %struct._packet_info, ptr %115, i32 0, i32 33
  store i32 0, ptr %116, align 4
  %117 = load i32, ptr %12, align 4
  %118 = load ptr, ptr %7, align 8
  %119 = getelementptr inbounds nuw %struct._packet_info, ptr %118, i32 0, i32 34
  store i32 %117, ptr %119, align 8
  %120 = load i32, ptr %12, align 4
  %121 = sub i32 0, %120
  store i32 %121, ptr %5, align 4
  store i32 1, ptr %18, align 4
  br label %174

122:                                              ; preds = %108, %105, %102
  %123 = load ptr, ptr %7, align 8
  %124 = getelementptr inbounds nuw %struct._packet_info, ptr %123, i32 0, i32 1
  %125 = load ptr, ptr %124, align 8
  call void @col_set_str(ptr noundef %125, i32 noundef 35, ptr noundef @.str.136)
  call void @llvm.lifetime.start.p0(i64 4, ptr %19) #14
  store i32 0, ptr %19, align 4
  call void @llvm.lifetime.start.p0(i64 8, ptr %20) #14
  %126 = load ptr, ptr %8, align 8
  %127 = load i32, ptr @proto_jxta, align 4
  %128 = load ptr, ptr %6, align 8
  %129 = load i32, ptr %19, align 4
  %130 = call ptr (ptr, i32, ptr, i32, i32, ptr, ...) @proto_tree_add_protocol_format(ptr noundef %126, i32 noundef %127, ptr noundef %128, i32 noundef %129, i32 noundef -1, ptr noundef @.str.136)
  store ptr %130, ptr %20, align 8
  call void @llvm.lifetime.start.p0(i64 8, ptr %21) #14
  %131 = load ptr, ptr %20, align 8
  %132 = load i32, ptr @ett_jxta, align 4
  %133 = call ptr @proto_item_add_subtree(ptr noundef %131, i32 noundef %132)
  store ptr %133, ptr %21, align 8
  call void @llvm.lifetime.start.p0(i64 8, ptr %22) #14
  %134 = load ptr, ptr %21, align 8
  %135 = load i32, ptr @hf_jxta_udp, align 4
  %136 = load ptr, ptr %6, align 8
  %137 = load i32, ptr %19, align 4
  %138 = call ptr (ptr, i32, ptr, i32, i32, ptr, ...) @proto_tree_add_none_format(ptr noundef %134, i32 noundef %135, ptr noundef %136, i32 noundef %137, i32 noundef -1, ptr noundef @.str.165)
  store ptr %138, ptr %22, align 8
  call void @llvm.lifetime.start.p0(i64 8, ptr %23) #14
  %139 = load ptr, ptr %22, align 8
  %140 = load i32, ptr @ett_jxta_udp, align 4
  %141 = call ptr @proto_item_add_subtree(ptr noundef %139, i32 noundef %140)
  store ptr %141, ptr %23, align 8
  call void @llvm.lifetime.start.p0(i64 8, ptr %24) #14
  call void @llvm.lifetime.start.p0(i64 8, ptr %25) #14
  store i64 -1, ptr %25, align 8
  call void @llvm.lifetime.start.p0(i64 8, ptr %26) #14
  store ptr null, ptr %26, align 8
  call void @llvm.lifetime.start.p0(i64 8, ptr %27) #14
  %142 = load ptr, ptr %23, align 8
  %143 = load i32, ptr @hf_jxta_udpsig, align 4
  %144 = load ptr, ptr %6, align 8
  %145 = load i32, ptr %19, align 4
  %146 = call ptr @proto_tree_add_item(ptr noundef %142, i32 noundef %143, ptr noundef %144, i32 noundef %145, i32 noundef 4, i32 noundef 0)
  %147 = load i32, ptr %19, align 4
  %148 = add i32 %147, 4
  store i32 %148, ptr %19, align 4
  %149 = load ptr, ptr %6, align 8
  %150 = load i32, ptr %19, align 4
  %151 = call ptr @tvb_new_subset_remaining(ptr noundef %149, i32 noundef %150)
  store ptr %151, ptr %24, align 8
  %152 = load ptr, ptr %24, align 8
  %153 = load ptr, ptr %7, align 8
  %154 = load ptr, ptr %21, align 8
  %155 = call i32 @dissect_jxta_message_framing(ptr noundef %152, ptr noundef %153, ptr noundef %154, ptr noundef %25, ptr noundef %26)
  %156 = load i32, ptr %19, align 4
  %157 = add i32 %156, %155
  store i32 %157, ptr %19, align 4
  %158 = load ptr, ptr %6, align 8
  %159 = load i32, ptr %19, align 4
  %160 = load i64, ptr %25, align 8
  %161 = trunc i64 %160 to i32
  %162 = call ptr @tvb_new_subset_length(ptr noundef %158, i32 noundef %159, i32 noundef %161)
  store ptr %162, ptr %27, align 8
  %163 = load ptr, ptr %26, align 8
  %164 = load ptr, ptr %27, align 8
  %165 = load ptr, ptr %7, align 8
  %166 = load ptr, ptr %8, align 8
  %167 = call i32 @dissect_media(ptr noundef %163, ptr noundef %164, ptr noundef %165, ptr noundef %166)
  %168 = load i32, ptr %19, align 4
  %169 = add i32 %168, %167
  store i32 %169, ptr %19, align 4
  %170 = load ptr, ptr %22, align 8
  %171 = load ptr, ptr %6, align 8
  %172 = load i32, ptr %19, align 4
  call void @proto_item_set_end(ptr noundef %170, ptr noundef %171, i32 noundef %172)
  %173 = load i32, ptr %10, align 4
  store i32 %173, ptr %5, align 4
  store i32 1, ptr %18, align 4
  call void @llvm.lifetime.end.p0(i64 8, ptr %27) #14
  call void @llvm.lifetime.end.p0(i64 8, ptr %26) #14
  call void @llvm.lifetime.end.p0(i64 8, ptr %25) #14
  call void @llvm.lifetime.end.p0(i64 8, ptr %24) #14
  call void @llvm.lifetime.end.p0(i64 8, ptr %23) #14
  call void @llvm.lifetime.end.p0(i64 8, ptr %22) #14
  call void @llvm.lifetime.end.p0(i64 8, ptr %21) #14
  call void @llvm.lifetime.end.p0(i64 8, ptr %20) #14
  call void @llvm.lifetime.end.p0(i64 4, ptr %19) #14
  br label %174

174:                                              ; preds = %122, %114, %100
  call void @llvm.lifetime.end.p0(i64 8, ptr %13) #14
  call void @llvm.lifetime.end.p0(i64 4, ptr %12) #14
  call void @llvm.lifetime.end.p0(i64 4, ptr %11) #14
  call void @llvm.lifetime.end.p0(i64 4, ptr %10) #14
  %175 = load i32, ptr %5, align 4
  ret i32 %175
}