; Function Attrs: null_pointer_is_valid sspstrong uwtable
define internal i32 @dissect_jxta_udp(ptr noundef %0, ptr noundef %1, ptr noundef %2, ptr readnone captures(none) %3) #0 {
  %5 = alloca i64, align 8
  %6 = alloca ptr, align 8
  %7 = alloca i64, align 8
  %8 = alloca ptr, align 8
  %9 = tail call ptr @find_or_create_conversation(ptr noundef %1)
  %10 = load ptr, ptr @jxta_udp_handle, align 8
  tail call void @conversation_set_dissector(ptr noundef %9, ptr noundef %10)
  call void @llvm.lifetime.start.p0(i64 8, ptr nonnull %5) #15
  store i64 -1, ptr %5, align 8
  call void @llvm.lifetime.start.p0(i64 8, ptr nonnull %6) #15
  store ptr null, ptr %6, align 8
  %11 = tail call i32 @tvb_reported_length_remaining(ptr noundef %0, i32 noundef 0)
  %12 = icmp ult i32 %11, 4
  br i1 %12, label %.thread77, label %13

.thread77:                                        ; preds = %4
  %narrow = sub nuw nsw i32 4, %11
  call void @llvm.lifetime.end.p0(i64 8, ptr nonnull %6) #15
  call void @llvm.lifetime.end.p0(i64 8, ptr nonnull %5) #15
  br label %41

13:                                               ; preds = %4
  %14 = tail call i32 @tvb_memeql(ptr noundef %0, i32 noundef 0, ptr noundef nonnull @JXTA_UDP_SIG, i64 noundef 4)
  %.not = icmp eq i32 %14, 0
  br i1 %.not, label %15, label %38

15:                                               ; preds = %13
  %16 = tail call ptr @tvb_new_subset_remaining(ptr noundef %0, i32 noundef 4)
  %17 = call fastcc i32 @dissect_jxta_message_framing(ptr noundef %16, ptr noundef %1, ptr noundef null, ptr noundef nonnull %5, ptr noundef nonnull %6)
  %18 = icmp eq i32 %17, 0
  %19 = load ptr, ptr %6, align 8
  %20 = icmp eq ptr %19, null
  %or.cond = select i1 %18, i1 true, i1 %20
  %21 = load i64, ptr %5, align 8
  %22 = add i64 %21, -4294967296
  %23 = icmp ult i64 %22, -4294967295
  %or.cond5 = select i1 %or.cond, i1 true, i1 %23
  br i1 %or.cond5, label %38, label %24

24:                                               ; preds = %15
  %25 = icmp slt i32 %17, 0
  br i1 %25, label %26, label %28

26:                                               ; preds = %24
  %27 = sub i32 0, %17
  br label %39

28:                                               ; preds = %24
  %29 = add nuw i32 %17, 4
  %30 = call i32 @tvb_reported_length_remaining(ptr noundef %0, i32 noundef %29)
  %31 = zext i32 %30 to i64
  %32 = load i64, ptr %5, align 8
  %33 = icmp ugt i64 %32, %31
  %34 = trunc i64 %32 to i32
  br i1 %33, label %35, label %.thread83

35:                                               ; preds = %28
  %36 = sub i32 %34, %30
  br label %39

.thread83:                                        ; preds = %28
  %37 = add i32 %29, %34
  call void @llvm.lifetime.end.p0(i64 8, ptr nonnull %6) #15
  call void @llvm.lifetime.end.p0(i64 8, ptr nonnull %5) #15
  br label %51

38:                                               ; preds = %15, %13
  call void @llvm.lifetime.end.p0(i64 8, ptr nonnull %6) #15
  call void @llvm.lifetime.end.p0(i64 8, ptr nonnull %5) #15
  br label %73

39:                                               ; preds = %26, %35
  %.065.ph = phi i32 [ %36, %35 ], [ %27, %26 ]
  %.064.ph = phi i32 [ %29, %35 ], [ 4, %26 ]
  call void @llvm.lifetime.end.p0(i64 8, ptr nonnull %6) #15
  call void @llvm.lifetime.end.p0(i64 8, ptr nonnull %5) #15
  %40 = icmp sgt i32 %.065.ph, 0
  br i1 %40, label %41, label %51

41:                                               ; preds = %.thread77, %39
  %.064.ph82 = phi i32 [ 0, %.thread77 ], [ %.064.ph, %39 ]
  %.065.ph80 = phi i32 [ %narrow, %.thread77 ], [ %.065.ph, %39 ]
  %42 = load i8, ptr @gDESEGMENT, align 1, !range !6, !noundef !7
  %43 = trunc nuw i8 %42 to i1
  br i1 %43, label %44, label %51

44:                                               ; preds = %41
  %45 = getelementptr inbounds nuw i8, ptr %1, i64 328
  %46 = load i16, ptr %45, align 8
  %.not71 = icmp eq i16 %46, 0
  br i1 %.not71, label %51, label %47

47:                                               ; preds = %44
  %48 = getelementptr inbounds nuw i8, ptr %1, i64 332
  store i32 0, ptr %48, align 4
  %49 = getelementptr inbounds nuw i8, ptr %1, i64 336
  store i32 %.065.ph80, ptr %49, align 8
  %50 = sub nsw i32 0, %.065.ph80
  br label %73

51:                                               ; preds = %.thread83, %44, %41, %39
  %.064.ph81 = phi i32 [ %.064.ph82, %44 ], [ %.064.ph82, %41 ], [ %.064.ph, %39 ], [ %37, %.thread83 ]
  %52 = getelementptr inbounds nuw i8, ptr %1, i64 8
  %53 = load ptr, ptr %52, align 8
  call void @col_set_str(ptr noundef %53, i32 noundef 35, ptr noundef nonnull @.str.136)
  %54 = load i32, ptr @proto_jxta, align 4
  %55 = call ptr (ptr, i32, ptr, i32, i32, ptr, ...) @proto_tree_add_protocol_format(ptr noundef %2, i32 noundef %54, ptr noundef %0, i32 noundef 0, i32 noundef -1, ptr noundef nonnull @.str.136)
  %56 = load i32, ptr @ett_jxta, align 4
  %57 = call ptr @proto_item_add_subtree(ptr noundef %55, i32 noundef %56)
  %58 = load i32, ptr @hf_jxta_udp, align 4
  %59 = call ptr (ptr, i32, ptr, i32, i32, ptr, ...) @proto_tree_add_none_format(ptr noundef %57, i32 noundef %58, ptr noundef %0, i32 noundef 0, i32 noundef -1, ptr noundef nonnull @.str.165)
  %60 = load i32, ptr @ett_jxta_udp, align 4
  %61 = call ptr @proto_item_add_subtree(ptr noundef %59, i32 noundef %60)
  call void @llvm.lifetime.start.p0(i64 8, ptr nonnull %7) #15
  store i64 -1, ptr %7, align 8
  call void @llvm.lifetime.start.p0(i64 8, ptr nonnull %8) #15
  store ptr null, ptr %8, align 8
  %62 = load i32, ptr @hf_jxta_udpsig, align 4
  %63 = call ptr @proto_tree_add_item(ptr noundef %61, i32 noundef %62, ptr noundef %0, i32 noundef 0, i32 noundef 4, i32 noundef 0)
  %64 = call ptr @tvb_new_subset_remaining(ptr noundef %0, i32 noundef 4)
  %65 = call fastcc i32 @dissect_jxta_message_framing(ptr noundef %64, ptr noundef %1, ptr noundef %57, ptr noundef nonnull %7, ptr noundef nonnull %8)
  %66 = add i32 %65, 4
  %67 = load i64, ptr %7, align 8
  %68 = trunc i64 %67 to i32
  %69 = call ptr @tvb_new_subset_length(ptr noundef %0, i32 noundef %66, i32 noundef %68)
  %70 = load ptr, ptr %8, align 8
  %71 = call fastcc i32 @dissect_media(ptr noundef %70, ptr noundef %69, ptr noundef %1, ptr noundef %2)
  %72 = add i32 %71, %66
  call void @proto_item_set_end(ptr noundef %59, ptr noundef %0, i32 noundef %72)
  call void @llvm.lifetime.end.p0(i64 8, ptr nonnull %8) #15
  call void @llvm.lifetime.end.p0(i64 8, ptr nonnull %7) #15
  br label %73

73:                                               ; preds = %38, %51, %47
  %.1 = phi i32 [ %50, %47 ], [ %.064.ph81, %51 ], [ 0, %38 ]
  ret i32 %.1
}